; Function Attrs: nounwind uwtable
define internal range(i32 0, 2) i32 @test_exec_RR_ses_receive_error() #0 {
  %1 = tail call fastcc ptr @set_up(ptr noundef nonnull @.str.31)
  %2 = icmp eq ptr %1, null
  br i1 %2, label %16, label %3

3:                                                ; preds = %0
  %4 = getelementptr inbounds nuw i8, ptr %1, i64 16
  %5 = load ptr, ptr %4, align 8, !tbaa !24
  %6 = tail call i32 @ossl_cmp_mock_srv_set_statusInfo(ptr noundef %5, i32 noundef 2, i32 noundef 1048576, ptr noundef nonnull @.str.63) #4
  %7 = load ptr, ptr %4, align 8, !tbaa !24
  %8 = tail call i32 @ossl_cmp_mock_srv_set_sendError(ptr noundef %7, i32 noundef 11) #4
  %9 = getelementptr inbounds nuw i8, ptr %1, i64 28
  store i32 2, ptr %9, align 4, !tbaa !17
  %10 = tail call fastcc i32 @execute_exec_RR_ses_test(ptr noundef %1)
  %11 = getelementptr inbounds nuw i8, ptr %1, i64 8
  %12 = load ptr, ptr %11, align 8, !tbaa !23
  tail call void @OSSL_CMP_CTX_free(ptr noundef %12) #4
  %13 = load ptr, ptr %4, align 8, !tbaa !24
  tail call void @ossl_cmp_mock_srv_free(ptr noundef %13) #4
  %14 = getelementptr inbounds nuw i8, ptr %1, i64 32
  %15 = load ptr, ptr %14, align 8, !tbaa !25
  tail call void @OPENSSL_sk_free(ptr noundef %15) #4
  tail call void @CRYPTO_free(ptr noundef nonnull %1, ptr noundef nonnull @.str.14, i32 noundef 51) #4
  br label %16

16:                                               ; preds = %0, %3
  %.08 = phi i32 [ %10, %3 ], [ 0, %0 ]
  ret i32 %.08
}